; Function Attrs: mustprogress uwtable
define internal void @_ZZN9grpc_core12_GLOBAL__N_120InitTransportClosureIXadL_ZL18read_action_lockedNS_13RefCountedPtrI21grpc_chttp2_transportEEN4absl12lts_202308026StatusEEEEEP12grpc_closureS4_S9_ENUlPvS7_E_8__invokeESA_S7_(ptr noundef %tp, ptr nocapture noundef %error) #5 align 2 personality ptr @__gxx_personality_v0 {
entry:
  %agg.tmp.i = alloca %"class.grpc_core::RefCountedPtr.262", align 8
  %agg.tmp2.i = alloca %"class.absl::lts_20230802::Status", align 8
  call void @llvm.lifetime.start.p0(i64 8, ptr nonnull %agg.tmp.i)
  call void @llvm.lifetime.start.p0(i64 8, ptr nonnull %agg.tmp2.i)
  store ptr %tp, ptr %agg.tmp.i, align 8
  %0 = load i64, ptr %error, align 8
  store i64 %0, ptr %agg.tmp2.i, align 8
  store i64 54, ptr %error, align 8
  invoke fastcc void @_ZL18read_action_lockedN9grpc_core13RefCountedPtrI21grpc_chttp2_transportEEN4absl12lts_202308026StatusE(ptr noundef nonnull %agg.tmp.i, ptr noundef nonnull %agg.tmp2.i)
          to label %invoke.cont.i unwind label %lpad.i

invoke.cont.i:                                    ; preds = %entry
  %1 = load i64, ptr %agg.tmp2.i, align 8
  %and.i.i.i.i = and i64 %1, 1
  %cmp.i.i.i.i = icmp eq i64 %and.i.i.i.i, 0
  br i1 %cmp.i.i.i.i, label %_ZN4absl12lts_202308026StatusD2Ev.exit.i, label %if.then.i.i.i

if.then.i.i.i:                                    ; preds = %invoke.cont.i
  invoke void @_ZN4absl12lts_202308026Status15UnrefNonInlinedEm(i64 noundef %1)
          to label %_ZN4absl12lts_202308026StatusD2Ev.exit.i unwind label %terminate.lpad.i.i

terminate.lpad.i.i:                               ; preds = %if.then.i.i.i
  %2 = landingpad { ptr, i32 }
          catch ptr null
  %3 = extractvalue { ptr, i32 } %2, 0
  tail call void @__clang_call_terminate(ptr %3) #33
  unreachable

_ZN4absl12lts_202308026StatusD2Ev.exit.i:         ; preds = %if.then.i.i.i, %invoke.cont.i
  %4 = load ptr, ptr %agg.tmp.i, align 8
  %cmp.not.i.i = icmp eq ptr %4, null
  br i1 %cmp.not.i.i, label %_ZZN9grpc_core12_GLOBAL__N_120InitTransportClosureIXadL_ZL18read_action_lockedNS_13RefCountedPtrI21grpc_chttp2_transportEEN4absl12lts_202308026StatusEEEEEP12grpc_closureS4_S9_ENKUlPvS7_E_clESA_S7_.exit, label %if.then.i.i

if.then.i.i:                                      ; preds = %_ZN4absl12lts_202308026StatusD2Ev.exit.i
  %add.ptr.i.i = getelementptr inbounds i8, ptr %4, i64 16
  %5 = atomicrmw sub ptr %add.ptr.i.i, i64 1 acq_rel, align 8
  %cmp.i.i.i1.i = icmp eq i64 %5, 1
  br i1 %cmp.i.i.i1.i, label %if.then.i.i2.i, label %_ZZN9grpc_core12_GLOBAL__N_120InitTransportClosureIXadL_ZL18read_action_lockedNS_13RefCountedPtrI21grpc_chttp2_transportEEN4absl12lts_202308026StatusEEEEEP12grpc_closureS4_S9_ENKUlPvS7_E_clESA_S7_.exit

if.then.i.i2.i:                                   ; preds = %if.then.i.i
  tail call void @_ZN21grpc_chttp2_transportD1Ev(ptr noundef nonnull align 8 dereferenceable(3384) %4) #34
  tail call void @_ZdlPv(ptr noundef nonnull %4) #35
  br label %_ZZN9grpc_core12_GLOBAL__N_120InitTransportClosureIXadL_ZL18read_action_lockedNS_13RefCountedPtrI21grpc_chttp2_transportEEN4absl12lts_202308026StatusEEEEEP12grpc_closureS4_S9_ENKUlPvS7_E_clESA_S7_.exit

lpad.i:                                           ; preds = %entry
  %6 = landingpad { ptr, i32 }
          cleanup
  call void @_ZN4absl12lts_202308026StatusD2Ev(ptr noundef nonnull align 8 dereferenceable(8) %agg.tmp2.i) #34
  %7 = load ptr, ptr %agg.tmp.i, align 8
  %cmp.not.i3.i = icmp eq ptr %7, null
  br i1 %cmp.not.i3.i, label %_ZN9grpc_core13RefCountedPtrI21grpc_chttp2_transportED2Ev.exit8.i, label %if.then.i4.i

if.then.i4.i:                                     ; preds = %lpad.i
  %add.ptr.i5.i = getelementptr inbounds i8, ptr %7, i64 16
  %8 = atomicrmw sub ptr %add.ptr.i5.i, i64 1 acq_rel, align 8
  %cmp.i.i.i6.i = icmp eq i64 %8, 1
  br i1 %cmp.i.i.i6.i, label %if.then.i.i7.i, label %_ZN9grpc_core13RefCountedPtrI21grpc_chttp2_transportED2Ev.exit8.i

if.then.i.i7.i:                                   ; preds = %if.then.i4.i
  call void @_ZN21grpc_chttp2_transportD1Ev(ptr noundef nonnull align 8 dereferenceable(3384) %7) #34
  call void @_ZdlPv(ptr noundef nonnull %7) #35
  br label %_ZN9grpc_core13RefCountedPtrI21grpc_chttp2_transportED2Ev.exit8.i

_ZN9grpc_core13RefCountedPtrI21grpc_chttp2_transportED2Ev.exit8.i: ; preds = %if.then.i.i7.i, %if.then.i4.i, %lpad.i
  resume { ptr, i32 } %6

_ZZN9grpc_core12_GLOBAL__N_120InitTransportClosureIXadL_ZL18read_action_lockedNS_13RefCountedPtrI21grpc_chttp2_transportEEN4absl12lts_202308026StatusEEEEEP12grpc_closureS4_S9_ENKUlPvS7_E_clESA_S7_.exit: ; preds = %_ZN4absl12lts_202308026StatusD2Ev.exit.i, %if.then.i.i, %if.then.i.i2.i
  call void @llvm.lifetime.end.p0(i64 8, ptr nonnull %agg.tmp.i)
  call void @llvm.lifetime.end.p0(i64 8, ptr nonnull %agg.tmp2.i)
  ret void
}